; Function Attrs: mustprogress uwtable
define void @_ZN8QuantLib23RichardsonExtrapolationC2ERKSt8functionIFddEEdd(ptr noundef nonnull align 8 dereferenceable(56) %this, ptr noundef nonnull align 8 dereferenceable(32) %f, double noundef %delta_h, double noundef %n) unnamed_addr #0 align 2 personality ptr @__gxx_personality_v0 {
entry:
  %__args.addr.i = alloca double, align 8
  store double %delta_h, ptr %this, align 8, !tbaa !3
  call void @llvm.lifetime.start.p0(i64 8, ptr nonnull %__args.addr.i)
  store double %delta_h, ptr %__args.addr.i, align 8, !tbaa !11
  %_M_manager.i.i = getelementptr inbounds nuw i8, ptr %f, i64 16
  %0 = load ptr, ptr %_M_manager.i.i, align 8, !tbaa !12
  %tobool.not.i.i = icmp eq ptr %0, null
  br i1 %tobool.not.i.i, label %if.then.i, label %_ZNKSt8functionIFddEEclEd.exit

if.then.i:                                        ; preds = %entry
  tail call void @_ZSt25__throw_bad_function_callv() #17
  unreachable

_ZNKSt8functionIFddEEclEd.exit:                   ; preds = %entry
  %fdelta_h_ = getelementptr inbounds nuw i8, ptr %this, i64 8
  %_M_invoker.i = getelementptr inbounds nuw i8, ptr %f, i64 24
  %1 = load ptr, ptr %_M_invoker.i, align 8, !tbaa !13
  %call2.i = call noundef double %1(ptr noundef nonnull align 8 dereferenceable(16) %f, ptr noundef nonnull align 8 dereferenceable(8) %__args.addr.i)
  call void @llvm.lifetime.end.p0(i64 8, ptr nonnull %__args.addr.i)
  store double %call2.i, ptr %fdelta_h_, align 8, !tbaa !14
  %n_ = getelementptr inbounds nuw i8, ptr %this, i64 16
  store double %n, ptr %n_, align 8, !tbaa !15
  %f_ = getelementptr inbounds nuw i8, ptr %this, i64 24
  %_M_manager.i.i3 = getelementptr inbounds nuw i8, ptr %this, i64 40
  %_M_invoker.i4 = getelementptr inbounds nuw i8, ptr %this, i64 48
  call void @llvm.memset.p0.i64(ptr noundef nonnull align 8 dereferenceable(32) %f_, i8 0, i64 32, i1 false)
  %2 = load ptr, ptr %_M_manager.i.i, align 8, !tbaa !12
  %tobool.not.i.i.not.i = icmp eq ptr %2, null
  br i1 %tobool.not.i.i.not.i, label %_ZNSt8functionIFddEEC2ERKS1_.exit, label %if.then.i5

if.then.i5:                                       ; preds = %_ZNKSt8functionIFddEEclEd.exit
  %call3.i = invoke noundef zeroext i1 %2(ptr noundef nonnull align 8 dereferenceable(16) %f_, ptr noundef nonnull align 8 dereferenceable(16) %f, i32 noundef 2)
          to label %invoke.cont.i unwind label %lpad.i

invoke.cont.i:                                    ; preds = %if.then.i5
  %3 = load ptr, ptr %_M_invoker.i, align 8, !tbaa !13
  store ptr %3, ptr %_M_invoker.i4, align 8, !tbaa !13
  %4 = load ptr, ptr %_M_manager.i.i, align 8, !tbaa !12
  store ptr %4, ptr %_M_manager.i.i3, align 8, !tbaa !12
  br label %_ZNSt8functionIFddEEC2ERKS1_.exit

lpad.i:                                           ; preds = %if.then.i5
  %5 = landingpad { ptr, i32 }
          cleanup
  %6 = load ptr, ptr %_M_manager.i.i3, align 8, !tbaa !12
  %tobool.not.i.i6 = icmp eq ptr %6, null
  br i1 %tobool.not.i.i6, label %_ZNSt14_Function_baseD2Ev.exit.i, label %if.then.i.i

if.then.i.i:                                      ; preds = %lpad.i
  %call.i.i = invoke noundef zeroext i1 %6(ptr noundef nonnull align 8 dereferenceable(16) %f_, ptr noundef nonnull align 8 dereferenceable(16) %f_, i32 noundef 3)
          to label %_ZNSt14_Function_baseD2Ev.exit.i unwind label %terminate.lpad.i.i

terminate.lpad.i.i:                               ; preds = %if.then.i.i
  %7 = landingpad { ptr, i32 }
          catch ptr null
  %8 = extractvalue { ptr, i32 } %7, 0
  call void @__clang_call_terminate(ptr %8) #18
  unreachable

_ZNSt14_Function_baseD2Ev.exit.i:                 ; preds = %if.then.i.i, %lpad.i
  resume { ptr, i32 } %5

_ZNSt8functionIFddEEC2ERKS1_.exit:                ; preds = %_ZNKSt8functionIFddEEclEd.exit, %invoke.cont.i
  ret void
}